; Function Attrs: mustprogress uwtable
define hidden void @_ZN4cvc58internal6theory3sep9TheorySep17getRepresentativeENS0_12NodeTemplateILb1EEE(ptr dead_on_unwind noalias writable writeonly sret(%"class.cvc5::internal::NodeTemplate") align 8 captures(none) initializes((0, 8)) %0, ptr noundef nonnull readonly align 8 captures(none) dereferenceable(1824) %1, ptr noundef readonly captures(none) %2) local_unnamed_addr #3 align 2 personality ptr @__gxx_personality_v0 {
  %4 = alloca %"class.cvc5::internal::NodeTemplate.595", align 8
  %5 = alloca %"class.cvc5::internal::NodeTemplate.595", align 8
  %6 = alloca %"class.cvc5::internal::NodeTemplate.595", align 8
  %7 = getelementptr inbounds nuw i8, ptr %1, i64 80
  %8 = load ptr, ptr %7, align 8, !tbaa !392
  %9 = load ptr, ptr %2, align 8, !tbaa !19
  store ptr %9, ptr %4, align 8, !tbaa !393
  %10 = call noundef zeroext i1 @_ZNK4cvc58internal6theory2eq14EqualityEngine7hasTermENS0_12NodeTemplateILb0EEE(ptr noundef nonnull align 8 dereferenceable(1784) %8, ptr noundef nonnull %4)
  br i1 %10, label %11, label %29

11:                                               ; preds = %3
  call void @llvm.lifetime.start.p0(i64 8, ptr nonnull %5) #26
  %12 = load ptr, ptr %7, align 8, !tbaa !392
  %13 = load ptr, ptr %2, align 8, !tbaa !19
  store ptr %13, ptr %6, align 8, !tbaa !393
  call void @_ZNK4cvc58internal6theory2eq14EqualityEngine17getRepresentativeENS0_12NodeTemplateILb0EEE(ptr dead_on_unwind nonnull writable sret(%"class.cvc5::internal::NodeTemplate.595") align 8 %5, ptr noundef nonnull align 8 dereferenceable(1784) %12, ptr noundef nonnull %6)
  %14 = load ptr, ptr %5, align 8, !tbaa !393
  store ptr %14, ptr %0, align 8, !tbaa !19
  %15 = load i64, ptr %14, align 8
  %16 = lshr i64 %15, 40
  %17 = trunc nuw nsw i64 %16 to i32
  %18 = and i32 %17, 1048575
  %19 = icmp samesign ult i32 %18, 1048574
  br i1 %19, label %20, label %25, !prof !172

20:                                               ; preds = %11
  %21 = add i64 %15, 1099511627776
  %22 = and i64 %21, 1152920405095219200
  %23 = and i64 %15, -1152920405095219201
  %24 = or disjoint i64 %22, %23
  store i64 %24, ptr %14, align 8
  br label %_ZN4cvc58internal12NodeTemplateILb1EEC2ERKNS1_ILb0EEE.exit

25:                                               ; preds = %11
  %26 = icmp eq i32 %18, 1048574
  br i1 %26, label %27, label %_ZN4cvc58internal12NodeTemplateILb1EEC2ERKNS1_ILb0EEE.exit, !prof !171

27:                                               ; preds = %25
  %28 = or i64 %15, 1152920405095219200
  store i64 %28, ptr %14, align 8
  call void @_ZN4cvc58internal4expr9NodeValue20markRefCountMaxedOutEv(ptr noundef nonnull align 8 dereferenceable(24) %14)
  br label %_ZN4cvc58internal12NodeTemplateILb1EEC2ERKNS1_ILb0EEE.exit

_ZN4cvc58internal12NodeTemplateILb1EEC2ERKNS1_ILb0EEE.exit: ; preds = %27, %25, %20
  call void @llvm.lifetime.end.p0(i64 8, ptr nonnull %5) #26
  br label %_ZN4cvc58internal12NodeTemplateILb1EEC2ERKS2_.exit

29:                                               ; preds = %3
  %30 = load ptr, ptr %2, align 8, !tbaa !19
  store ptr %30, ptr %0, align 8, !tbaa !19
  %31 = load i64, ptr %30, align 8
  %32 = lshr i64 %31, 40
  %33 = trunc nuw nsw i64 %32 to i32
  %34 = and i32 %33, 1048575
  %35 = icmp samesign ult i32 %34, 1048574
  br i1 %35, label %36, label %41, !prof !172

36:                                               ; preds = %29
  %37 = add i64 %31, 1099511627776
  %38 = and i64 %37, 1152920405095219200
  %39 = and i64 %31, -1152920405095219201
  %40 = or disjoint i64 %38, %39
  store i64 %40, ptr %30, align 8
  br label %_ZN4cvc58internal12NodeTemplateILb1EEC2ERKS2_.exit

41:                                               ; preds = %29
  %42 = icmp eq i32 %34, 1048574
  br i1 %42, label %43, label %_ZN4cvc58internal12NodeTemplateILb1EEC2ERKS2_.exit, !prof !171

43:                                               ; preds = %41
  %44 = or i64 %31, 1152920405095219200
  store i64 %44, ptr %30, align 8
  call void @_ZN4cvc58internal4expr9NodeValue20markRefCountMaxedOutEv(ptr noundef nonnull align 8 dereferenceable(24) %30)
  br label %_ZN4cvc58internal12NodeTemplateILb1EEC2ERKS2_.exit

_ZN4cvc58internal12NodeTemplateILb1EEC2ERKS2_.exit: ; preds = %43, %41, %36, %_ZN4cvc58internal12NodeTemplateILb1EEC2ERKNS1_ILb0EEE.exit
  ret void
}